; Function Attrs: mustprogress uwtable
define noundef ptr @_ZN11duckdb_zstd27ZSTD_createDStream_advancedENS_14ZSTD_customMemE(ptr noundef readonly byval(%"struct.duckdb_zstd::ZSTD_customMem") align 8 captures(none) %0) local_unnamed_addr #0 {
  %.sroa.06.0.copyload = load ptr, ptr %0, align 8, !tbaa !51
  %.sroa.2.0..sroa_idx = getelementptr inbounds nuw i8, ptr %0, i64 8
  %.sroa.2.0.copyload = load ptr, ptr %.sroa.2.0..sroa_idx, align 8, !tbaa !51
  %.sroa.3.0..sroa_idx = getelementptr inbounds nuw i8, ptr %0, i64 16
  %.sroa.3.0.copyload = load ptr, ptr %.sroa.3.0..sroa_idx, align 8, !tbaa !51
  %.not.i = icmp eq ptr %.sroa.06.0.copyload, null
  %.not6.i = icmp eq ptr %.sroa.2.0.copyload, null
  %2 = xor i1 %.not.i, %.not6.i
  br i1 %2, label %_ZN11duckdb_zstdL24ZSTD_createDCtx_internalENS_14ZSTD_customMemE.exit, label %3

3:                                                ; preds = %1
  br i1 %.not.i, label %6, label %4

4:                                                ; preds = %3
  %5 = tail call noundef ptr %.sroa.06.0.copyload(ptr noundef %.sroa.3.0.copyload, i64 noundef 95976)
  br label %_ZN11duckdb_zstdL17ZSTD_customMallocEmNS_14ZSTD_customMemE.exit.i

6:                                                ; preds = %3
  %7 = tail call noalias dereferenceable_or_null(95976) ptr @malloc(i64 noundef 95976) #16
  br label %_ZN11duckdb_zstdL17ZSTD_customMallocEmNS_14ZSTD_customMemE.exit.i

_ZN11duckdb_zstdL17ZSTD_customMallocEmNS_14ZSTD_customMemE.exit.i: ; preds = %6, %4
  %.0.i.i = phi ptr [ %5, %4 ], [ %7, %6 ]
  %.not7.i = icmp eq ptr %.0.i.i, null
  br i1 %.not7.i, label %_ZN11duckdb_zstdL24ZSTD_createDCtx_internalENS_14ZSTD_customMemE.exit, label %8

8:                                                ; preds = %_ZN11duckdb_zstdL17ZSTD_customMallocEmNS_14ZSTD_customMemE.exit.i
  %9 = getelementptr inbounds nuw i8, ptr %.0.i.i, i64 30128
  store ptr %.sroa.06.0.copyload, ptr %9, align 8, !tbaa !51
  %.sroa.5.0..sroa_idx = getelementptr inbounds nuw i8, ptr %.0.i.i, i64 30136
  store ptr %.sroa.2.0.copyload, ptr %.sroa.5.0..sroa_idx, align 8, !tbaa !51
  %.sroa.6.0..sroa_idx = getelementptr inbounds nuw i8, ptr %.0.i.i, i64 30144
  store ptr %.sroa.3.0.copyload, ptr %.sroa.6.0..sroa_idx, align 8, !tbaa !51
  %10 = getelementptr inbounds nuw i8, ptr %.0.i.i, i64 30168
  store i64 0, ptr %10, align 8, !tbaa !49
  %11 = getelementptr inbounds nuw i8, ptr %.0.i.i, i64 30184
  %12 = getelementptr inbounds nuw i8, ptr %.0.i.i, i64 29912
  store ptr null, ptr %12, align 8, !tbaa !31
  %13 = getelementptr inbounds nuw i8, ptr %.0.i.i, i64 30204
  store i32 0, ptr %13, align 4, !tbaa !32
  %14 = getelementptr inbounds nuw i8, ptr %.0.i.i, i64 30208
  store i32 0, ptr %14, align 8, !tbaa !33
  %15 = getelementptr inbounds nuw i8, ptr %.0.i.i, i64 30280
  store i64 0, ptr %15, align 8, !tbaa !30
  %16 = getelementptr inbounds nuw i8, ptr %.0.i.i, i64 30236
  %17 = getelementptr inbounds nuw i8, ptr %.0.i.i, i64 30316
  store i32 0, ptr %17, align 4, !tbaa !34
  %18 = getelementptr inbounds nuw i8, ptr %.0.i.i, i64 95960
  store i64 0, ptr %18, align 8, !tbaa !35
  %19 = getelementptr inbounds nuw i8, ptr %.0.i.i, i64 30176
  tail call void @llvm.memset.p0.i64(ptr noundef nonnull align 8 dereferenceable(16) %11, i8 0, i64 16, i1 false)
  tail call void @llvm.memset.p0.i64(ptr noundef nonnull align 4 dereferenceable(20) %16, i8 0, i64 20, i1 false)
  store i32 1, ptr %19, align 8, !tbaa !36
  %20 = tail call i32 asm "cpuid", "={ax},{ax},~{ebx},~{ecx},~{edx},~{dirflag},~{fpsr},~{flags}"(i32 0) #15, !srcloc !37
  %.not.i.i.i.i = icmp eq i32 %20, 0
  br i1 %.not.i.i.i.i, label %_ZN11duckdb_zstdL22ZSTD_initDCtx_internalEPNS_11ZSTD_DCtx_sE.exit.i, label %21

21:                                               ; preds = %8
  %22 = tail call { i32, i32, i32 } asm "cpuid", "={ax},={cx},={dx},{ax},~{ebx},~{dirflag},~{fpsr},~{flags}"(i32 1) #15, !srcloc !38
  %23 = icmp ugt i32 %20, 6
  br i1 %23, label %_ZN11duckdb_zstdL10ZSTD_cpuidEv.exit.i.i.i, label %_ZN11duckdb_zstdL22ZSTD_initDCtx_internalEPNS_11ZSTD_DCtx_sE.exit.i

_ZN11duckdb_zstdL10ZSTD_cpuidEv.exit.i.i.i:       ; preds = %21
  %24 = tail call { i32, i32, i32 } asm "cpuid", "={ax},={bx},={cx},{ax},{cx},~{edx},~{dirflag},~{fpsr},~{flags}"(i32 7, i32 0) #15, !srcloc !39
  %25 = extractvalue { i32, i32, i32 } %24, 1
  %26 = and i32 %25, 8
  %.not.i.i.i = icmp eq i32 %26, 0
  br i1 %.not.i.i.i, label %_ZN11duckdb_zstdL22ZSTD_initDCtx_internalEPNS_11ZSTD_DCtx_sE.exit.i, label %27

27:                                               ; preds = %_ZN11duckdb_zstdL10ZSTD_cpuidEv.exit.i.i.i
  %28 = lshr i32 %25, 8
  %29 = and i32 %28, 1
  br label %_ZN11duckdb_zstdL22ZSTD_initDCtx_internalEPNS_11ZSTD_DCtx_sE.exit.i

_ZN11duckdb_zstdL22ZSTD_initDCtx_internalEPNS_11ZSTD_DCtx_sE.exit.i: ; preds = %27, %_ZN11duckdb_zstdL10ZSTD_cpuidEv.exit.i.i.i, %21, %8
  %30 = phi i32 [ 0, %_ZN11duckdb_zstdL10ZSTD_cpuidEv.exit.i.i.i ], [ %29, %27 ], [ 0, %21 ], [ 0, %8 ]
  %31 = getelementptr inbounds nuw i8, ptr %.0.i.i, i64 30180
  store i32 %30, ptr %31, align 4, !tbaa !40
  %32 = getelementptr inbounds nuw i8, ptr %.0.i.i, i64 30216
  store ptr null, ptr %32, align 8, !tbaa !41
  %33 = getelementptr inbounds nuw i8, ptr %.0.i.i, i64 30104
  store i32 0, ptr %33, align 8, !tbaa !42
  %34 = getelementptr inbounds nuw i8, ptr %.0.i.i, i64 30264
  store i64 134217729, ptr %34, align 8, !tbaa !43
  %35 = getelementptr inbounds nuw i8, ptr %.0.i.i, i64 30320
  store i32 0, ptr %35, align 8, !tbaa !44
  %36 = getelementptr inbounds nuw i8, ptr %.0.i.i, i64 30108
  store i32 0, ptr %36, align 4, !tbaa !45
  %37 = getelementptr inbounds nuw i8, ptr %.0.i.i, i64 30224
  store i32 0, ptr %37, align 8, !tbaa !46
  %38 = getelementptr inbounds nuw i8, ptr %.0.i.i, i64 30228
  store i32 0, ptr %38, align 4, !tbaa !47
  %39 = getelementptr inbounds nuw i8, ptr %.0.i.i, i64 30232
  store i32 0, ptr %39, align 8, !tbaa !48
  br label %_ZN11duckdb_zstdL24ZSTD_createDCtx_internalENS_14ZSTD_customMemE.exit

_ZN11duckdb_zstdL24ZSTD_createDCtx_internalENS_14ZSTD_customMemE.exit: ; preds = %1, %_ZN11duckdb_zstdL17ZSTD_customMallocEmNS_14ZSTD_customMemE.exit.i, %_ZN11duckdb_zstdL22ZSTD_initDCtx_internalEPNS_11ZSTD_DCtx_sE.exit.i
  %.0.i = phi ptr [ null, %1 ], [ %.0.i.i, %_ZN11duckdb_zstdL22ZSTD_initDCtx_internalEPNS_11ZSTD_DCtx_sE.exit.i ], [ null, %_ZN11duckdb_zstdL17ZSTD_customMallocEmNS_14ZSTD_customMemE.exit.i ]
  ret ptr %.0.i
}